target datalayout = "e-m:e-p270:32:32-p271:32:32-p272:64:64-i64:64-i128:128-f80:128-n8:16:32:64-S128"
target triple = "x86_64-pc-linux-gnu"

@.str.98 = private unnamed_addr constant [29 x i8] c"Simple Protected Negotiation\00", align 1
@.str.99 = private unnamed_addr constant [7 x i8] c"SPNEGO\00", align 1
@.str.100 = private unnamed_addr constant [7 x i8] c"spnego\00", align 1
@proto_spnego = internal global i32 0, align 4
@spnego_handle = internal global ptr null, align 8
@.str.101 = private unnamed_addr constant [12 x i8] c"spnego-wrap\00", align 1
@spnego_wrap_handle = internal global ptr null, align 8
@.str.102 = private unnamed_addr constant [12 x i8] c"SPNEGO-KRB5\00", align 1
@.str.103 = private unnamed_addr constant [12 x i8] c"spnego-krb5\00", align 1
@proto_spnego_krb5 = internal global i32 0, align 4
@spnego_krb5_handle = internal global ptr null, align 8
@.str.104 = private unnamed_addr constant [17 x i8] c"spnego-krb5-wrap\00", align 1
@spnego_krb5_wrap_handle = internal global ptr null, align 8

; Function Attrs: nounwind uwtable
define hidden void @proto_register_spnego() #0 {
  %1 = alloca ptr, align 8
  %2 = call i32 @proto_register_protocol(ptr noundef @.str.98, ptr noundef @.str.99, ptr noundef @.str.100)
  store i32 %2, ptr @proto_spnego, align 4
  %3 = load i32, ptr @proto_spnego, align 4
  %4 = call ptr @register_dissector(ptr noundef @.str.100, ptr noundef @dissect_spnego, i32 noundef %3)
  store ptr %4, ptr @spnego_handle, align 8
  %5 = load i32, ptr @proto_spnego, align 4
  %6 = call ptr @register_dissector(ptr noundef @.str.101, ptr noundef @dissect_spnego_wrap, i32 noundef %5)
  store ptr %6, ptr @spnego_wrap_handle, align 8
  %7 = call i32 @proto_register_protocol(ptr noundef @.str.102, ptr noundef @.str.102, ptr noundef @.str.103)
  store i32 %7, ptr @proto_spnego_krb5, align 4
  %8 = load i32, ptr @proto_spnego_krb5, align 4
  %9 = call ptr @register_dissector(ptr noundef @.str.103, ptr noundef @dissect_spnego_krb5, i32 noundef %8)
  store ptr %9, ptr @spnego_krb5_handle, align 8
  %10 = load i32, ptr @proto_spnego_krb5, align 4
  %11 = call ptr @register_dissector(ptr noundef @.str.104, ptr noundef @dissect_spnego_krb5_wrap, i32 noundef %10)
  store ptr %11, ptr @spnego_krb5_wrap_handle, align 8
  %12 = load i32, ptr @proto_spnego, align 4
  call void @proto_register_field_array(i32 noundef %12, ptr noundef @proto_register_spnego.hf, i32 noundef 41)
  call void @proto_register_subtree_array(ptr noundef @proto_register_spnego.ett, i32 noundef 12)
  %13 = load i32, ptr @proto_spnego, align 4
  %14 = call ptr @expert_register_protocol(i32 noundef %13)
  store ptr %14, ptr %1, align 8
  %15 = load ptr, ptr %1, align 8
  call void @expert_register_field_array(ptr noundef %15, ptr noundef @proto_register_spnego.ei, i32 noundef 2)
  ret void
}