; Function Attrs: nounwind uwtable
define hidden void @proto_register_spnego() local_unnamed_addr #0 {
  %1 = tail call i32 @proto_register_protocol(ptr noundef nonnull @.str.98, ptr noundef nonnull @.str.99, ptr noundef nonnull @.str.100) #6
  store i32 %1, ptr @proto_spnego, align 4
  %2 = tail call ptr @register_dissector(ptr noundef nonnull @.str.100, ptr noundef nonnull @dissect_spnego, i32 noundef %1) #6
  store ptr %2, ptr @spnego_handle, align 8
  %3 = load i32, ptr @proto_spnego, align 4
  %4 = tail call ptr @register_dissector(ptr noundef nonnull @.str.101, ptr noundef nonnull @dissect_spnego_wrap, i32 noundef %3) #6
  store ptr %4, ptr @spnego_wrap_handle, align 8
  %5 = tail call i32 @proto_register_protocol(ptr noundef nonnull @.str.102, ptr noundef nonnull @.str.102, ptr noundef nonnull @.str.103) #6
  store i32 %5, ptr @proto_spnego_krb5, align 4
  %6 = tail call ptr @register_dissector(ptr noundef nonnull @.str.103, ptr noundef nonnull @dissect_spnego_krb5, i32 noundef %5) #6
  store ptr %6, ptr @spnego_krb5_handle, align 8
  %7 = load i32, ptr @proto_spnego_krb5, align 4
  %8 = tail call ptr @register_dissector(ptr noundef nonnull @.str.104, ptr noundef nonnull @dissect_spnego_krb5_wrap, i32 noundef %7) #6
  store ptr %8, ptr @spnego_krb5_wrap_handle, align 8
  %9 = load i32, ptr @proto_spnego, align 4
  tail call void @proto_register_field_array(i32 noundef %9, ptr noundef nonnull @proto_register_spnego.hf, i32 noundef 41) #6
  tail call void @proto_register_subtree_array(ptr noundef nonnull @proto_register_spnego.ett, i32 noundef 12) #6
  %10 = load i32, ptr @proto_spnego, align 4
  %11 = tail call ptr @expert_register_protocol(i32 noundef %10) #6
  tail call void @expert_register_field_array(ptr noundef %11, ptr noundef nonnull @proto_register_spnego.ei, i32 noundef 2) #6
  ret void
}